target datalayout = "e-m:e-p270:32:32-p271:32:32-p272:64:64-i64:64-i128:128-f80:128-n8:16:32:64-S128"
target triple = "x86_64-pc-linux-gnu"

%"class.std::__cxx11::basic_string" = type { %"struct.std::__cxx11::basic_string<char>::_Alloc_hider", i64, %union.anon.15 }
%"struct.std::__cxx11::basic_string<char>::_Alloc_hider" = type { ptr }
%union.anon.15 = type { i64, [8 x i8] }
%"struct.OpenImageIO::v3_1_0::TypeDesc" = type { i8, i8, i8, i8, i32 }
%"class.OpenImageIO::v3_1_0::TIFFInput" = type { %"class.OpenImageIO::v3_1_0::ImageInput", ptr, %"class.std::__cxx11::basic_string", %"class.std::vector.16", %"class.std::vector.16", i32, i32, i8, i8, i8, i8, i8, i8, i8, i8, i8, i32, i16, i16, i16, i16, i16, i16, %"class.std::vector.21", %"class.std::vector.26", %"class.std::vector.31" }
%"class.OpenImageIO::v3_1_0::ImageInput" = type { ptr, %"class.OpenImageIO::v3_1_0::ImageSpec", %"class.std::unique_ptr" }
%"class.OpenImageIO::v3_1_0::ImageSpec" = type { i32, i32, i32, i32, i32, i32, i32, i32, i32, i32, i32, i32, i32, i32, i32, i32, %"struct.OpenImageIO::v3_1_0::TypeDesc", %"class.std::vector", %"class.std::vector.0", i32, i32, i8, %"class.OpenImageIO::v3_1_0::ParamValueList" }
%"class.std::vector" = type { %"struct.std::_Vector_base" }
%"struct.std::_Vector_base" = type { %"struct.std::_Vector_base<OpenImageIO::v3_1_0::TypeDesc, std::allocator<OpenImageIO::v3_1_0::TypeDesc>>::_Vector_impl" }
%"struct.std::_Vector_base<OpenImageIO::v3_1_0::TypeDesc, std::allocator<OpenImageIO::v3_1_0::TypeDesc>>::_Vector_impl" = type { %"struct.std::_Vector_base<OpenImageIO::v3_1_0::TypeDesc, std::allocator<OpenImageIO::v3_1_0::TypeDesc>>::_Vector_impl_data" }
%"struct.std::_Vector_base<OpenImageIO::v3_1_0::TypeDesc, std::allocator<OpenImageIO::v3_1_0::TypeDesc>>::_Vector_impl_data" = type { ptr, ptr, ptr }
%"class.std::vector.0" = type { %"struct.std::_Vector_base.1" }
%"struct.std::_Vector_base.1" = type { %"struct.std::_Vector_base<std::__cxx11::basic_string<char>, std::allocator<std::__cxx11::basic_string<char>>>::_Vector_impl" }
%"struct.std::_Vector_base<std::__cxx11::basic_string<char>, std::allocator<std::__cxx11::basic_string<char>>>::_Vector_impl" = type { %"struct.std::_Vector_base<std::__cxx11::basic_string<char>, std::allocator<std::__cxx11::basic_string<char>>>::_Vector_impl_data" }
%"struct.std::_Vector_base<std::__cxx11::basic_string<char>, std::allocator<std::__cxx11::basic_string<char>>>::_Vector_impl_data" = type { ptr, ptr, ptr }
%"class.OpenImageIO::v3_1_0::ParamValueList" = type { %"class.std::vector.5" }
%"class.std::vector.5" = type { %"struct.std::_Vector_base.6" }
%"struct.std::_Vector_base.6" = type { %"struct.std::_Vector_base<OpenImageIO::v3_1_0::ParamValue, std::allocator<OpenImageIO::v3_1_0::ParamValue>>::_Vector_impl" }
%"struct.std::_Vector_base<OpenImageIO::v3_1_0::ParamValue, std::allocator<OpenImageIO::v3_1_0::ParamValue>>::_Vector_impl" = type { %"struct.std::_Vector_base<OpenImageIO::v3_1_0::ParamValue, std::allocator<OpenImageIO::v3_1_0::ParamValue>>::_Vector_impl_data" }
%"struct.std::_Vector_base<OpenImageIO::v3_1_0::ParamValue, std::allocator<OpenImageIO::v3_1_0::ParamValue>>::_Vector_impl_data" = type { ptr, ptr, ptr }
%"class.std::unique_ptr" = type { %"struct.std::__uniq_ptr_data" }
%"struct.std::__uniq_ptr_data" = type { %"class.std::__uniq_ptr_impl" }
%"class.std::__uniq_ptr_impl" = type { %"class.std::tuple" }
%"class.std::tuple" = type { %"struct.std::_Tuple_impl" }
%"struct.std::_Tuple_impl" = type { %"struct.std::_Tuple_impl.10", %"struct.std::_Head_base.11" }
%"struct.std::_Tuple_impl.10" = type { %"struct.std::_Head_base" }
%"struct.std::_Head_base" = type { ptr }
%"struct.std::_Head_base.11" = type { ptr }
%"class.std::vector.16" = type { %"struct.std::_Vector_base.17" }
%"struct.std::_Vector_base.17" = type { %"struct.std::_Vector_base<unsigned char, std::allocator<unsigned char>>::_Vector_impl" }
%"struct.std::_Vector_base<unsigned char, std::allocator<unsigned char>>::_Vector_impl" = type { %"struct.std::_Vector_base<unsigned char, std::allocator<unsigned char>>::_Vector_impl_data" }
%"struct.std::_Vector_base<unsigned char, std::allocator<unsigned char>>::_Vector_impl_data" = type { ptr, ptr, ptr }
%"class.std::vector.21" = type { %"struct.std::_Vector_base.22" }
%"struct.std::_Vector_base.22" = type { %"struct.std::_Vector_base<unsigned short, std::allocator<unsigned short>>::_Vector_impl" }
%"struct.std::_Vector_base<unsigned short, std::allocator<unsigned short>>::_Vector_impl" = type { %"struct.std::_Vector_base<unsigned short, std::allocator<unsigned short>>::_Vector_impl_data" }
%"struct.std::_Vector_base<unsigned short, std::allocator<unsigned short>>::_Vector_impl_data" = type { ptr, ptr, ptr }
%"class.std::vector.26" = type { %"struct.std::_Vector_base.27" }
%"struct.std::_Vector_base.27" = type { %"struct.std::_Vector_base<unsigned int, std::allocator<unsigned int>>::_Vector_impl" }
%"struct.std::_Vector_base<unsigned int, std::allocator<unsigned int>>::_Vector_impl" = type { %"struct.std::_Vector_base<unsigned int, std::allocator<unsigned int>>::_Vector_impl_data" }
%"struct.std::_Vector_base<unsigned int, std::allocator<unsigned int>>::_Vector_impl_data" = type { ptr, ptr, ptr }
%"class.std::vector.31" = type { %"struct.std::_Vector_base.32" }
%"struct.std::_Vector_base.32" = type { %"struct.std::_Vector_base<OpenImageIO::v3_1_0::ImageSpec, std::allocator<OpenImageIO::v3_1_0::ImageSpec>>::_Vector_impl" }
%"struct.std::_Vector_base<OpenImageIO::v3_1_0::ImageSpec, std::allocator<OpenImageIO::v3_1_0::ImageSpec>>::_Vector_impl" = type { %"struct.std::_Vector_base<OpenImageIO::v3_1_0::ImageSpec, std::allocator<OpenImageIO::v3_1_0::ImageSpec>>::_Vector_impl_data" }
%"struct.std::_Vector_base<OpenImageIO::v3_1_0::ImageSpec, std::allocator<OpenImageIO::v3_1_0::ImageSpec>>::_Vector_impl_data" = type { ptr, ptr, ptr }
%"class.std::lock_guard" = type { ptr }

@_ZN11OpenImageIO6v3_1_011TypeUnknownE = linkonce_odr hidden constant %"struct.OpenImageIO::v3_1_0::TypeDesc" { i8 0, i8 1, i8 0, i8 0, i32 0 }, comdat, align 4

; Function Attrs: mustprogress nounwind uwtable
define linkonce_odr void @_ZNSt10lock_guardIRKN11OpenImageIO6v3_1_010ImageInputEED2Ev(ptr noundef nonnull align 8 dereferenceable(8) %0) unnamed_addr #7 comdat align 2 personality ptr @__gxx_personality_v0 {
  %2 = alloca ptr, align 8
  store ptr %0, ptr %2, align 8, !tbaa !202
  %3 = load ptr, ptr %2, align 8
  %4 = getelementptr inbounds nuw %"class.std::lock_guard", ptr %3, i32 0, i32 0
  %5 = load ptr, ptr %4, align 8, !tbaa !204
  invoke void @_ZNK11OpenImageIO6v3_1_010ImageInput6unlockEv(ptr noundef nonnull align 8 dereferenceable(184) %5)
          to label %6 unwind label %7

6:                                                ; preds = %1
  ret void

7:                                                ; preds = %1
  %8 = landingpad { ptr, i32 }
          catch ptr null
  %9 = extractvalue { ptr, i32 } %8, 0
  call void @__clang_call_terminate(ptr %9) #29
  unreachable
}

; Function Attrs: mustprogress nounwind uwtable
define linkonce_odr noundef zeroext i1 @_ZNK11OpenImageIO6v3_1_08TypeDesceqERKS1_(ptr noundef nonnull align 4 dereferenceable(8) %0, ptr noundef nonnull align 4 dereferenceable(8) %1) #7 comdat align 2 {
  %3 = alloca ptr, align 8
  %4 = alloca ptr, align 8
  store ptr %0, ptr %3, align 8, !tbaa !179
  store ptr %1, ptr %4, align 8, !tbaa !179
  %5 = load ptr, ptr %3, align 8
  %6 = getelementptr inbounds nuw %"struct.OpenImageIO::v3_1_0::TypeDesc", ptr %5, i32 0, i32 0
  %7 = load i8, ptr %6, align 4, !tbaa !182
  %8 = zext i8 %7 to i32
  %9 = load ptr, ptr %4, align 8, !tbaa !179
  %10 = getelementptr inbounds nuw %"struct.OpenImageIO::v3_1_0::TypeDesc", ptr %9, i32 0, i32 0
  %11 = load i8, ptr %10, align 4, !tbaa !182
  %12 = zext i8 %11 to i32
  %13 = icmp eq i32 %8, %12
  br i1 %13, label %14, label %39

14:                                               ; preds = %2
  %15 = getelementptr inbounds nuw %"struct.OpenImageIO::v3_1_0::TypeDesc", ptr %5, i32 0, i32 1
  %16 = load i8, ptr %15, align 1, !tbaa !183
  %17 = zext i8 %16 to i32
  %18 = load ptr, ptr %4, align 8, !tbaa !179
  %19 = getelementptr inbounds nuw %"struct.OpenImageIO::v3_1_0::TypeDesc", ptr %18, i32 0, i32 1
  %20 = load i8, ptr %19, align 1, !tbaa !183
  %21 = zext i8 %20 to i32
  %22 = icmp eq i32 %17, %21
  br i1 %22, label %23, label %39

23:                                               ; preds = %14
  %24 = getelementptr inbounds nuw %"struct.OpenImageIO::v3_1_0::TypeDesc", ptr %5, i32 0, i32 2
  %25 = load i8, ptr %24, align 2, !tbaa !199
  %26 = zext i8 %25 to i32
  %27 = load ptr, ptr %4, align 8, !tbaa !179
  %28 = getelementptr inbounds nuw %"struct.OpenImageIO::v3_1_0::TypeDesc", ptr %27, i32 0, i32 2
  %29 = load i8, ptr %28, align 2, !tbaa !199
  %30 = zext i8 %29 to i32
  %31 = icmp eq i32 %26, %30
  br i1 %31, label %32, label %39

32:                                               ; preds = %23
  %33 = getelementptr inbounds nuw %"struct.OpenImageIO::v3_1_0::TypeDesc", ptr %5, i32 0, i32 4
  %34 = load i32, ptr %33, align 4, !tbaa !201
  %35 = load ptr, ptr %4, align 8, !tbaa !179
  %36 = getelementptr inbounds nuw %"struct.OpenImageIO::v3_1_0::TypeDesc", ptr %35, i32 0, i32 4
  %37 = load i32, ptr %36, align 4, !tbaa !201
  %38 = icmp eq i32 %34, %37
  br label %39

39:                                               ; preds = %32, %23, %14, %2
  %40 = phi i1 [ false, %23 ], [ false, %14 ], [ false, %2 ], [ %38, %32 ]
  ret i1 %40
}

; Function Attrs: mustprogress uwtable
define linkonce_odr void @_ZNSt10lock_guardIRKN11OpenImageIO6v3_1_010ImageInputEEC2ES4_(ptr noundef nonnull align 8 dereferenceable(8) %0, ptr noundef nonnull align 8 dereferenceable(184) %1) unnamed_addr #6 comdat align 2 {
  %3 = alloca ptr, align 8
  %4 = alloca ptr, align 8
  store ptr %0, ptr %3, align 8, !tbaa !202
  store ptr %1, ptr %4, align 8, !tbaa !133
  %5 = load ptr, ptr %3, align 8
  %6 = getelementptr inbounds nuw %"class.std::lock_guard", ptr %5, i32 0, i32 0
  %7 = load ptr, ptr %4, align 8, !tbaa !133
  store ptr %7, ptr %6, align 8, !tbaa !133
  %8 = getelementptr inbounds nuw %"class.std::lock_guard", ptr %5, i32 0, i32 0
  %9 = load ptr, ptr %8, align 8, !tbaa !204
  call void @_ZNK11OpenImageIO6v3_1_010ImageInput4lockEv(ptr noundef nonnull align 8 dereferenceable(184) %9)
  ret void
}

; Function Attrs: mustprogress uwtable
define hidden noundef zeroext i1 @_ZN11OpenImageIO6v3_1_09TIFFInput10read_tilesEiiiiiiiiiiNS0_8TypeDescEPvlll(ptr noundef nonnull align 8 dereferenceable(384) %0, i32 noundef %1, i32 noundef %2, i32 noundef %3, i32 noundef %4, i32 noundef %5, i32 noundef %6, i32 noundef %7, i32 noundef %8, i32 noundef %9, i32 noundef %10, i64 %11, ptr noundef %12, i64 noundef %13, i64 noundef %14, i64 noundef %15) unnamed_addr #6 align 2 personality ptr @__gxx_personality_v0 {
  %17 = alloca %"struct.OpenImageIO::v3_1_0::TypeDesc", align 4
  %18 = alloca ptr, align 8
  %19 = alloca i32, align 4
  %20 = alloca i32, align 4
  %21 = alloca i32, align 4
  %22 = alloca i32, align 4
  %23 = alloca i32, align 4
  %24 = alloca i32, align 4
  %25 = alloca i32, align 4
  %26 = alloca i32, align 4
  %27 = alloca i32, align 4
  %28 = alloca i32, align 4
  %29 = alloca ptr, align 8
  %30 = alloca i64, align 8
  %31 = alloca i64, align 8
  %32 = alloca i64, align 8
  %33 = alloca i8, align 1
  %34 = alloca %"struct.OpenImageIO::v3_1_0::TypeDesc", align 4
  %35 = alloca i32, align 4
  %36 = alloca i32, align 4
  %37 = alloca i32, align 4
  %38 = alloca %"class.std::lock_guard", align 8
  %39 = alloca ptr, align 8
  %40 = alloca i32, align 4
  %41 = alloca %"struct.OpenImageIO::v3_1_0::TypeDesc", align 4
  store i64 %11, ptr %17, align 4
  store ptr %0, ptr %18, align 8, !tbaa !24
  store i32 %1, ptr %19, align 4, !tbaa !22
  store i32 %2, ptr %20, align 4, !tbaa !22
  store i32 %3, ptr %21, align 4, !tbaa !22
  store i32 %4, ptr %22, align 4, !tbaa !22
  store i32 %5, ptr %23, align 4, !tbaa !22
  store i32 %6, ptr %24, align 4, !tbaa !22
  store i32 %7, ptr %25, align 4, !tbaa !22
  store i32 %8, ptr %26, align 4, !tbaa !22
  store i32 %9, ptr %27, align 4, !tbaa !22
  store i32 %10, ptr %28, align 4, !tbaa !22
  store ptr %12, ptr %29, align 8, !tbaa !128
  store i64 %13, ptr %30, align 8, !tbaa !109
  store i64 %14, ptr %31, align 8, !tbaa !109
  store i64 %15, ptr %32, align 8, !tbaa !109
  %42 = load ptr, ptr %18, align 8
  call void @llvm.lifetime.start.p0(i64 1, ptr %33) #3
  %43 = load i32, ptr %19, align 4, !tbaa !22
  %44 = load i32, ptr %20, align 4, !tbaa !22
  %45 = load i32, ptr %21, align 4, !tbaa !22
  %46 = load i32, ptr %22, align 4, !tbaa !22
  %47 = load i32, ptr %23, align 4, !tbaa !22
  %48 = load i32, ptr %24, align 4, !tbaa !22
  %49 = load i32, ptr %25, align 4, !tbaa !22
  %50 = load i32, ptr %26, align 4, !tbaa !22
  %51 = load i32, ptr %27, align 4, !tbaa !22
  %52 = load i32, ptr %28, align 4, !tbaa !22
  call void @llvm.memcpy.p0.p0.i64(ptr align 4 %34, ptr align 4 %17, i64 8, i1 false), !tbaa.struct !136
  %53 = load ptr, ptr %29, align 8, !tbaa !128
  %54 = load i64, ptr %30, align 8, !tbaa !109
  %55 = load i64, ptr %31, align 8, !tbaa !109
  %56 = load i64, ptr %32, align 8, !tbaa !109
  %57 = load i64, ptr %34, align 4
  %58 = call noundef zeroext i1 @_ZN11OpenImageIO6v3_1_010ImageInput10read_tilesEiiiiiiiiiiNS0_8TypeDescEPvlll(ptr noundef nonnull align 8 dereferenceable(184) %42, i32 noundef %43, i32 noundef %44, i32 noundef %45, i32 noundef %46, i32 noundef %47, i32 noundef %48, i32 noundef %49, i32 noundef %50, i32 noundef %51, i32 noundef %52, i64 %57, ptr noundef %53, i64 noundef %54, i64 noundef %55, i64 noundef %56)
  %59 = zext i1 %58 to i8
  store i8 %59, ptr %33, align 1, !tbaa !118
  %60 = load i8, ptr %33, align 1, !tbaa !118, !range !119, !noundef !120
  %61 = trunc i8 %60 to i1
  br i1 %61, label %62, label %117

62:                                               ; preds = %16
  %63 = getelementptr inbounds nuw %"class.OpenImageIO::v3_1_0::TIFFInput", ptr %42, i32 0, i32 11
  %64 = load i8, ptr %63, align 4, !tbaa !94, !range !119, !noundef !120
  %65 = trunc i8 %64 to i1
  br i1 %65, label %66, label %117

66:                                               ; preds = %62
  call void @llvm.lifetime.start.p0(i64 4, ptr %35) #3
  call void @llvm.lifetime.start.p0(i64 4, ptr %36) #3
  call void @llvm.lifetime.start.p0(i64 4, ptr %37) #3
  call void @llvm.lifetime.start.p0(i64 8, ptr %38) #3
  call void @_ZNSt10lock_guardIRKN11OpenImageIO6v3_1_010ImageInputEEC2ES4_(ptr noundef nonnull align 8 dereferenceable(8) %38, ptr noundef nonnull align 8 dereferenceable(184) %42)
  %67 = load i32, ptr %19, align 4, !tbaa !22
  %68 = load i32, ptr %20, align 4, !tbaa !22
  %69 = invoke noundef zeroext i1 @_ZN11OpenImageIO6v3_1_09TIFFInput13seek_subimageEii(ptr noundef nonnull align 8 dereferenceable(384) %42, i32 noundef %67, i32 noundef %68)
          to label %70 unwind label %84

70:                                               ; preds = %66
  %71 = getelementptr inbounds nuw %"class.OpenImageIO::v3_1_0::ImageInput", ptr %42, i32 0, i32 1
  %72 = getelementptr inbounds nuw %"class.OpenImageIO::v3_1_0::ImageSpec", ptr %71, i32 0, i32 15
  %73 = load i32, ptr %72, align 4, !tbaa !141
  store i32 %73, ptr %35, align 4, !tbaa !22
  %74 = getelementptr inbounds nuw %"class.OpenImageIO::v3_1_0::ImageInput", ptr %42, i32 0, i32 1
  %75 = getelementptr inbounds nuw %"class.OpenImageIO::v3_1_0::ImageSpec", ptr %74, i32 0, i32 19
  %76 = load i32, ptr %75, align 8, !tbaa !172
  store i32 %76, ptr %36, align 4, !tbaa !22
  %77 = getelementptr inbounds nuw %"class.OpenImageIO::v3_1_0::ImageInput", ptr %42, i32 0, i32 1
  %78 = getelementptr inbounds nuw %"class.OpenImageIO::v3_1_0::ImageSpec", ptr %77, i32 0, i32 20
  %79 = load i32, ptr %78, align 4, !tbaa !350
  store i32 %79, ptr %37, align 4, !tbaa !22
  %80 = call noundef zeroext i1 @_ZNK11OpenImageIO6v3_1_08TypeDesceqERKS1_(ptr noundef nonnull align 4 dereferenceable(8) %17, ptr noundef nonnull align 4 dereferenceable(8) @_ZN11OpenImageIO6v3_1_011TypeUnknownE) #3
  br i1 %80, label %81, label %88

81:                                               ; preds = %70
  %82 = getelementptr inbounds nuw %"class.OpenImageIO::v3_1_0::ImageInput", ptr %42, i32 0, i32 1
  %83 = getelementptr inbounds nuw %"class.OpenImageIO::v3_1_0::ImageSpec", ptr %82, i32 0, i32 16
  call void @llvm.memcpy.p0.p0.i64(ptr align 4 %17, ptr align 8 %83, i64 8, i1 false), !tbaa.struct !136
  br label %88

84:                                               ; preds = %66
  %85 = landingpad { ptr, i32 }
          cleanup
  %86 = extractvalue { ptr, i32 } %85, 0
  store ptr %86, ptr %39, align 8
  %87 = extractvalue { ptr, i32 } %85, 1
  store i32 %87, ptr %40, align 4
  call void @_ZNSt10lock_guardIRKN11OpenImageIO6v3_1_010ImageInputEED2Ev(ptr noundef nonnull align 8 dereferenceable(8) %38) #3
  call void @llvm.lifetime.end.p0(i64 8, ptr %38) #3
  call void @llvm.lifetime.end.p0(i64 4, ptr %37) #3
  call void @llvm.lifetime.end.p0(i64 4, ptr %36) #3
  call void @llvm.lifetime.end.p0(i64 4, ptr %35) #3
  call void @llvm.lifetime.end.p0(i64 1, ptr %33) #3
  br label %120

88:                                               ; preds = %81, %70
  call void @_ZNSt10lock_guardIRKN11OpenImageIO6v3_1_010ImageInputEED2Ev(ptr noundef nonnull align 8 dereferenceable(8) %38) #3
  call void @llvm.lifetime.end.p0(i64 8, ptr %38) #3
  %89 = load i32, ptr %36, align 4, !tbaa !22
  %90 = load i32, ptr %27, align 4, !tbaa !22
  %91 = icmp sge i32 %89, %90
  br i1 %91, label %92, label %116

92:                                               ; preds = %88
  %93 = load i32, ptr %36, align 4, !tbaa !22
  %94 = load i32, ptr %28, align 4, !tbaa !22
  %95 = icmp slt i32 %93, %94
  br i1 %95, label %96, label %116

96:                                               ; preds = %92
  %97 = load i32, ptr %35, align 4, !tbaa !22
  %98 = load i32, ptr %22, align 4, !tbaa !22
  %99 = load i32, ptr %21, align 4, !tbaa !22
  %100 = sub nsw i32 %98, %99
  %101 = load i32, ptr %24, align 4, !tbaa !22
  %102 = load i32, ptr %23, align 4, !tbaa !22
  %103 = sub nsw i32 %101, %102
  %104 = load i32, ptr %26, align 4, !tbaa !22
  %105 = load i32, ptr %25, align 4, !tbaa !22
  %106 = sub nsw i32 %104, %105
  %107 = load i32, ptr %27, align 4, !tbaa !22
  %108 = load i32, ptr %28, align 4, !tbaa !22
  call void @llvm.memcpy.p0.p0.i64(ptr align 4 %41, ptr align 4 %17, i64 8, i1 false), !tbaa.struct !136
  %109 = load ptr, ptr %29, align 8, !tbaa !128
  %110 = load i64, ptr %30, align 8, !tbaa !109
  %111 = load i64, ptr %31, align 8, !tbaa !109
  %112 = load i64, ptr %32, align 8, !tbaa !109
  %113 = load i32, ptr %36, align 4, !tbaa !22
  %114 = load i32, ptr %37, align 4, !tbaa !22
  %115 = load i64, ptr %41, align 4
  call void @_ZN11OpenImageIO6v3_1_07premultEiiiiiiNS0_8TypeDescEPvlllii(i32 noundef %97, i32 noundef %100, i32 noundef %103, i32 noundef %106, i32 noundef %107, i32 noundef %108, i64 %115, ptr noundef %109, i64 noundef %110, i64 noundef %111, i64 noundef %112, i32 noundef %113, i32 noundef %114)
  br label %116

116:                                              ; preds = %96, %92, %88
  call void @llvm.lifetime.end.p0(i64 4, ptr %37) #3
  call void @llvm.lifetime.end.p0(i64 4, ptr %36) #3
  call void @llvm.lifetime.end.p0(i64 4, ptr %35) #3
  br label %117

117:                                              ; preds = %116, %62, %16
  %118 = load i8, ptr %33, align 1, !tbaa !118, !range !119, !noundef !120
  %119 = trunc i8 %118 to i1
  call void @llvm.lifetime.end.p0(i64 1, ptr %33) #3
  ret i1 %119

120:                                              ; preds = %84
  %121 = load ptr, ptr %39, align 8
  %122 = load i32, ptr %40, align 4
  %123 = insertvalue { ptr, i32 } poison, ptr %121, 0
  %124 = insertvalue { ptr, i32 } %123, i32 %122, 1
  resume { ptr, i32 } %124
}