; Function Attrs: mustprogress uwtable
define hidden noundef zeroext i1 @_ZN11OpenImageIO6v3_1_09TIFFInput10read_tilesEiiiiiiiiiiNS0_8TypeDescEPvlll(ptr noundef nonnull align 8 dereferenceable(384) %0, i32 noundef %1, i32 noundef %2, i32 noundef %3, i32 noundef %4, i32 noundef %5, i32 noundef %6, i32 noundef %7, i32 noundef %8, i32 noundef %9, i32 noundef %10, i64 %11, ptr noundef %12, i64 noundef %13, i64 noundef %14, i64 noundef %15) unnamed_addr #5 align 2 personality ptr @__gxx_personality_v0 {
  %.sroa.4.0.extract.shift = lshr i64 %11, 8
  %.sroa.5.0.extract.shift = lshr i64 %11, 16
  %17 = tail call noundef zeroext i1 @_ZN11OpenImageIO6v3_1_010ImageInput10read_tilesEiiiiiiiiiiNS0_8TypeDescEPvlll(ptr noundef nonnull align 8 dereferenceable(184) %0, i32 noundef %1, i32 noundef %2, i32 noundef %3, i32 noundef %4, i32 noundef %5, i32 noundef %6, i32 noundef %7, i32 noundef %8, i32 noundef %9, i32 noundef %10, i64 %11, ptr noundef %12, i64 noundef %13, i64 noundef %14, i64 noundef %15)
  br i1 %17, label %18, label %56

18:                                               ; preds = %16
  %19 = getelementptr inbounds nuw i8, ptr %0, i64 284
  %20 = load i8, ptr %19, align 4, !tbaa !175, !range !16, !noundef !17
  %21 = trunc nuw i8 %20 to i1
  br i1 %21, label %22, label %56

22:                                               ; preds = %18
  tail call void @_ZNK11OpenImageIO6v3_1_010ImageInput4lockEv(ptr noundef nonnull align 8 dereferenceable(184) %0)
  %23 = invoke noundef zeroext i1 @_ZN11OpenImageIO6v3_1_09TIFFInput13seek_subimageEii(ptr noundef nonnull align 8 dereferenceable(384) %0, i32 noundef %1, i32 noundef %2)
          to label %24 unwind label %43

24:                                               ; preds = %22
  %25 = getelementptr inbounds nuw i8, ptr %0, i64 68
  %26 = load i32, ptr %25, align 4, !tbaa !134
  %27 = getelementptr inbounds nuw i8, ptr %0, i64 128
  %28 = load i32, ptr %27, align 8, !tbaa !166
  %29 = getelementptr inbounds nuw i8, ptr %0, i64 132
  %30 = load i32, ptr %29, align 4, !tbaa !366
  %31 = and i64 %11, 255
  %32 = icmp eq i64 %31, 0
  br i1 %32, label %33, label %_ZNK11OpenImageIO6v3_1_08TypeDesceqERKS1_.exit.thread

33:                                               ; preds = %24
  %34 = and i64 %11, 65280
  %35 = icmp eq i64 %34, 256
  br i1 %35, label %36, label %_ZNK11OpenImageIO6v3_1_08TypeDesceqERKS1_.exit.thread

36:                                               ; preds = %33
  %37 = and i64 %11, 16711680
  %38 = icmp eq i64 %37, 0
  br i1 %38, label %_ZNK11OpenImageIO6v3_1_08TypeDesceqERKS1_.exit, label %_ZNK11OpenImageIO6v3_1_08TypeDesceqERKS1_.exit.thread

_ZNK11OpenImageIO6v3_1_08TypeDesceqERKS1_.exit:   ; preds = %36
  %39 = icmp ult i64 %11, 4294967296
  br i1 %39, label %40, label %_ZNK11OpenImageIO6v3_1_08TypeDesceqERKS1_.exit.thread

40:                                               ; preds = %_ZNK11OpenImageIO6v3_1_08TypeDesceqERKS1_.exit
  %41 = getelementptr inbounds nuw i8, ptr %0, i64 72
  %42 = load i64, ptr %41, align 8
  %.sroa.4.0.extract.shift46 = lshr i64 %42, 8
  %.sroa.5.0.extract.shift48 = lshr i64 %42, 16
  br label %_ZNK11OpenImageIO6v3_1_08TypeDesceqERKS1_.exit.thread

43:                                               ; preds = %22
  %44 = landingpad { ptr, i32 }
          cleanup
  invoke void @_ZNK11OpenImageIO6v3_1_010ImageInput6unlockEv(ptr noundef nonnull align 8 dereferenceable(184) %0)
          to label %_ZNSt10lock_guardIRKN11OpenImageIO6v3_1_010ImageInputEED2Ev.exit unwind label %45

45:                                               ; preds = %43
  %46 = landingpad { ptr, i32 }
          catch ptr null
  %47 = extractvalue { ptr, i32 } %46, 0
  tail call void @__clang_call_terminate(ptr %47) #37
  unreachable

_ZNSt10lock_guardIRKN11OpenImageIO6v3_1_010ImageInputEED2Ev.exit: ; preds = %43
  resume { ptr, i32 } %44

_ZNK11OpenImageIO6v3_1_08TypeDesceqERKS1_.exit.thread: ; preds = %24, %33, %36, %40, %_ZNK11OpenImageIO6v3_1_08TypeDesceqERKS1_.exit
  %.sroa.6.0.in.in = phi i64 [ %42, %40 ], [ %11, %_ZNK11OpenImageIO6v3_1_08TypeDesceqERKS1_.exit ], [ %11, %36 ], [ %11, %33 ], [ %11, %24 ]
  %.sroa.5.0 = phi i64 [ %.sroa.5.0.extract.shift48, %40 ], [ 0, %_ZNK11OpenImageIO6v3_1_08TypeDesceqERKS1_.exit ], [ %.sroa.5.0.extract.shift, %36 ], [ %.sroa.5.0.extract.shift, %33 ], [ %.sroa.5.0.extract.shift, %24 ]
  %.sroa.4.0 = phi i64 [ %.sroa.4.0.extract.shift46, %40 ], [ 1, %_ZNK11OpenImageIO6v3_1_08TypeDesceqERKS1_.exit ], [ 1, %36 ], [ %.sroa.4.0.extract.shift, %33 ], [ %.sroa.4.0.extract.shift, %24 ]
  %.sroa.044.0 = phi i64 [ %42, %40 ], [ 0, %_ZNK11OpenImageIO6v3_1_08TypeDesceqERKS1_.exit ], [ 0, %36 ], [ 0, %33 ], [ %11, %24 ]
  invoke void @_ZNK11OpenImageIO6v3_1_010ImageInput6unlockEv(ptr noundef nonnull align 8 dereferenceable(184) %0)
          to label %_ZNSt10lock_guardIRKN11OpenImageIO6v3_1_010ImageInputEED2Ev.exit42 unwind label %48

48:                                               ; preds = %_ZNK11OpenImageIO6v3_1_08TypeDesceqERKS1_.exit.thread
  %49 = landingpad { ptr, i32 }
          catch ptr null
  %50 = extractvalue { ptr, i32 } %49, 0
  tail call void @__clang_call_terminate(ptr %50) #37
  unreachable

_ZNSt10lock_guardIRKN11OpenImageIO6v3_1_010ImageInputEED2Ev.exit42: ; preds = %_ZNK11OpenImageIO6v3_1_08TypeDesceqERKS1_.exit.thread
  %.not = icmp sge i32 %28, %9
  %51 = icmp slt i32 %28, %10
  %or.cond = and i1 %.not, %51
  br i1 %or.cond, label %52, label %56

52:                                               ; preds = %_ZNSt10lock_guardIRKN11OpenImageIO6v3_1_010ImageInputEED2Ev.exit42
  %53 = sub nsw i32 %4, %3
  %54 = sub nsw i32 %6, %5
  %55 = sub nsw i32 %8, %7
  %.sroa.6.0.insert.insert = and i64 %.sroa.6.0.in.in, -16777216
  %.sroa.5.0.insert.ext = shl nuw i64 %.sroa.5.0, 16
  %.sroa.5.0.insert.shift = and i64 %.sroa.5.0.insert.ext, 16711680
  %.sroa.5.0.insert.insert = or disjoint i64 %.sroa.5.0.insert.shift, %.sroa.6.0.insert.insert
  %.sroa.4.0.insert.ext = shl nuw i64 %.sroa.4.0, 8
  %.sroa.4.0.insert.shift = and i64 %.sroa.4.0.insert.ext, 65280
  %.sroa.4.0.insert.insert = or disjoint i64 %.sroa.5.0.insert.insert, %.sroa.4.0.insert.shift
  %.sroa.044.0.insert.ext = and i64 %.sroa.044.0, 255
  %.sroa.044.0.insert.insert = or disjoint i64 %.sroa.4.0.insert.insert, %.sroa.044.0.insert.ext
  tail call void @_ZN11OpenImageIO6v3_1_07premultEiiiiiiNS0_8TypeDescEPvlllii(i32 noundef %26, i32 noundef %53, i32 noundef %54, i32 noundef %55, i32 noundef %9, i32 noundef %10, i64 %.sroa.044.0.insert.insert, ptr noundef %12, i64 noundef %13, i64 noundef %14, i64 noundef %15, i32 noundef %28, i32 noundef %30)
  br label %56

56:                                               ; preds = %_ZNSt10lock_guardIRKN11OpenImageIO6v3_1_010ImageInputEED2Ev.exit42, %52, %18, %16
  ret i1 %17
}